target datalayout = "e-m:e-p270:32:32-p271:32:32-p272:64:64-i64:64-i128:128-f80:128-n8:16:32:64-S128"
target triple = "x86_64-pc-linux-gnu"

%class.ref_vector = type { %class.ref_vector_core }
%class.ref_vector_core = type { %class.ref_manager_wrapper, %class.ptr_vector.1 }
%class.ref_manager_wrapper = type { ptr }
%class.ptr_vector.1 = type { %class.vector.2 }
%class.vector.2 = type { ptr }
%class.params_ref = type { ptr }
%class.svector.11 = type { %class.vector.12 }
%class.vector.12 = type { ptr }
%class.ast_manager = type { %class.reslimit, %class.small_object_allocator, %class.family_manager, %class.parray_manager, %class.dependency_manager, %class.parray_manager.28, %class.ptr_vector.31, i32, i8, %class.ast_table, %class.obj_map, %class.id_gen, %class.id_gen, ptr, ptr, ptr, ptr, ptr, i32, i8, [3 x i8], %class.u_map, ptr, i8, i8, ptr, %class.symbol, %class.obj_map.38, ptr }
%class.reslimit = type { %"struct.std::atomic", i8, i64, i64, %class.svector.13, %class.ptr_vector.15 }
%"struct.std::atomic" = type { %"struct.std::__atomic_base" }
%"struct.std::__atomic_base" = type { i32 }
%class.svector.13 = type { %class.vector.14 }
%class.vector.14 = type { ptr }
%class.ptr_vector.15 = type { %class.vector.16 }
%class.vector.16 = type { ptr }
%class.small_object_allocator = type { [32 x ptr], [32 x ptr], i64 }
%class.family_manager = type { i32, %class.symbol_table, %class.svector.22 }
%class.symbol_table = type { %class.core_hashtable.17, %class.vector.19, %class.svector.20 }
%class.core_hashtable.17 = type <{ ptr, i32, i32, i32, [4 x i8] }>
%class.vector.19 = type { ptr }
%class.svector.20 = type { %class.vector.21 }
%class.vector.21 = type { ptr }
%class.svector.22 = type { %class.vector.23 }
%class.vector.23 = type { ptr }
%class.parray_manager = type { ptr, ptr, %class.ptr_vector.24, %class.ptr_vector.24 }
%class.ptr_vector.24 = type { %class.vector.25 }
%class.vector.25 = type { ptr }
%class.dependency_manager = type { ptr, ptr, %class.ptr_vector.26 }
%class.ptr_vector.26 = type { %class.vector.27 }
%class.vector.27 = type { ptr }
%class.parray_manager.28 = type { ptr, ptr, %class.ptr_vector.29, %class.ptr_vector.29 }
%class.ptr_vector.29 = type { %class.vector.30 }
%class.vector.30 = type { ptr }
%class.ptr_vector.31 = type { %class.vector.32 }
%class.vector.32 = type { ptr }
%class.ast_table = type { %class.chashtable }
%class.chashtable = type { ptr, i32, i32, i32, i32, i32, i32, i32, ptr, ptr, ptr }
%class.obj_map = type { %class.core_hashtable.34 }
%class.core_hashtable.34 = type <{ ptr, i32, i32, i32, [4 x i8] }>
%class.id_gen = type { i32, %class.svector.11 }
%class.u_map = type { %class.map }
%class.map = type { %class.table2map }
%class.table2map = type { %class.core_hashtable.36 }
%class.core_hashtable.36 = type <{ ptr, i32, i32, i32, [4 x i8] }>
%class.symbol = type { ptr }
%class.obj_map.38 = type { %class.core_hashtable.39 }
%class.core_hashtable.39 = type <{ ptr, i32, i32, i32, [4 x i8] }>
%class.scoped_no_proof = type { %class.scoped_proof_mode.base, [4 x i8] }
%class.scoped_proof_mode.base = type <{ ptr, i32 }>
%"class.qe::mbproj" = type { ptr }
%"class.qe::mbproj::impl" = type <{ ptr, %class.params_ref, %class.th_rewriter, %class.ptr_vector.65, i8, i8, i8, [5 x i8] }>
%class.th_rewriter = type { ptr, %class.params_ref }
%class.ptr_vector.65 = type { %class.vector.66 }
%class.vector.66 = type { ptr }
%class.scoped_proof_mode = type <{ ptr, i32, [4 x i8] }>
%class.inf_eps_rational = type { %class.rational, %class.inf_rational }
%class.rational = type { %class.mpq }
%class.mpq = type { %class.mpz, %class.mpz }
%class.mpz = type { i32, i8, ptr }
%class.inf_rational = type { %class.rational, %class.rational }
%"class.mbp::arith_project_plugin" = type { %"class.mbp::project_plugin", ptr }
%"class.mbp::project_plugin" = type { ptr, ptr, %class.obj_mark, %class.ptr_vector.1, %class.obj_mark, %class.obj_mark, %class.ref_vector, %class.ref_vector, %class.ref_vector }
%class.obj_mark = type { [8 x i8], %class.bit_vector }
%class.bit_vector = type { i32, i32, ptr }

; Function Attrs: mustprogress nounwind uwtable
define linkonce_odr hidden noundef i32 @_ZNK11ast_manager10proof_modeEv(ptr noundef nonnull align 8 dereferenceable(976) %0) #4 comdat align 2 {
  %2 = alloca ptr, align 8
  store ptr %0, ptr %2, align 8, !tbaa !107
  %3 = load ptr, ptr %2, align 8
  %4 = getelementptr inbounds nuw %class.ast_manager, ptr %3, i32 0, i32 7
  %5 = load i32, ptr %4, align 8, !tbaa !330
  ret i32 %5
}

; Function Attrs: mustprogress nounwind uwtable
define linkonce_odr hidden void @_ZN11ast_manager17toggle_proof_modeE14proof_gen_mode(ptr noundef nonnull align 8 dereferenceable(976) %0, i32 noundef %1) #4 comdat align 2 {
  %3 = alloca ptr, align 8
  %4 = alloca i32, align 4
  store ptr %0, ptr %3, align 8, !tbaa !107
  store i32 %1, ptr %4, align 4, !tbaa !329
  %5 = load ptr, ptr %3, align 8
  %6 = load i32, ptr %4, align 4, !tbaa !329
  %7 = getelementptr inbounds nuw %class.ast_manager, ptr %5, i32 0, i32 7
  store i32 %6, ptr %7, align 8, !tbaa !330
  ret void
}

; Function Attrs: mustprogress uwtable
define linkonce_odr hidden void @_ZN17scoped_proof_modeC2ER11ast_manager14proof_gen_mode(ptr noundef nonnull align 8 dereferenceable(12) %0, ptr noundef nonnull align 8 dereferenceable(976) %1, i32 noundef %2) unnamed_addr #5 comdat align 2 {
  %4 = alloca ptr, align 8
  %5 = alloca ptr, align 8
  %6 = alloca i32, align 4
  store ptr %0, ptr %4, align 8, !tbaa !254
  store ptr %1, ptr %5, align 8, !tbaa !107
  store i32 %2, ptr %6, align 4, !tbaa !329
  %7 = load ptr, ptr %4, align 8
  %8 = getelementptr inbounds nuw %class.scoped_proof_mode, ptr %7, i32 0, i32 0
  %9 = load ptr, ptr %5, align 8, !tbaa !107
  store ptr %9, ptr %8, align 8, !tbaa !107
  %10 = load ptr, ptr %5, align 8, !tbaa !107
  %11 = call noundef i32 @_ZNK11ast_manager10proof_modeEv(ptr noundef nonnull align 8 dereferenceable(976) %10)
  %12 = getelementptr inbounds nuw %class.scoped_proof_mode, ptr %7, i32 0, i32 1
  store i32 %11, ptr %12, align 8, !tbaa !258
  %13 = load ptr, ptr %5, align 8, !tbaa !107
  %14 = load i32, ptr %6, align 4, !tbaa !329
  call void @_ZN11ast_manager17toggle_proof_modeE14proof_gen_mode(ptr noundef nonnull align 8 dereferenceable(976) %13, i32 noundef %14)
  ret void
}

; Function Attrs: mustprogress nounwind uwtable
define linkonce_odr hidden void @_ZN17scoped_proof_modeD2Ev(ptr noundef nonnull align 8 dereferenceable(12) %0) unnamed_addr #4 comdat align 2 {
  %2 = alloca ptr, align 8
  store ptr %0, ptr %2, align 8, !tbaa !254
  %3 = load ptr, ptr %2, align 8
  %4 = getelementptr inbounds nuw %class.scoped_proof_mode, ptr %3, i32 0, i32 0
  %5 = load ptr, ptr %4, align 8, !tbaa !256
  %6 = getelementptr inbounds nuw %class.scoped_proof_mode, ptr %3, i32 0, i32 1
  %7 = load i32, ptr %6, align 8, !tbaa !258
  call void @_ZN11ast_manager17toggle_proof_modeE14proof_gen_mode(ptr noundef nonnull align 8 dereferenceable(976) %5, i32 noundef %7)
  ret void
}

; Function Attrs: mustprogress uwtable
define linkonce_odr hidden void @_ZN2qe6mbproj4impl8maximizeERK10ref_vectorI4expr11ast_managerER5modelP3appR7obj_refIS3_S4_ESE_(ptr dead_on_unwind noalias writable sret(%class.inf_eps_rational) align 8 %0, ptr noundef nonnull align 8 dereferenceable(43) %1, ptr noundef nonnull align 8 dereferenceable(16) %2, ptr noundef nonnull align 8 dereferenceable(160) %3, ptr noundef %4, ptr noundef nonnull align 8 dereferenceable(16) %5, ptr noundef nonnull align 8 dereferenceable(16) %6) #5 comdat align 2 personality ptr @__gxx_personality_v0 {
  %8 = alloca ptr, align 8
  %9 = alloca ptr, align 8
  %10 = alloca ptr, align 8
  %11 = alloca ptr, align 8
  %12 = alloca ptr, align 8
  %13 = alloca ptr, align 8
  %14 = alloca ptr, align 8
  %15 = alloca %"class.mbp::arith_project_plugin", align 8
  %16 = alloca ptr, align 8
  %17 = alloca i32, align 4
  store ptr %0, ptr %8, align 8
  store ptr %1, ptr %9, align 8, !tbaa !253
  store ptr %2, ptr %10, align 8, !tbaa !108
  store ptr %3, ptr %11, align 8, !tbaa !231
  store ptr %4, ptr %12, align 8, !tbaa !87
  store ptr %5, ptr %13, align 8, !tbaa !180
  store ptr %6, ptr %14, align 8, !tbaa !180
  %18 = load ptr, ptr %9, align 8
  call void @llvm.lifetime.start.p0(i64 152, ptr %15) #3
  %19 = getelementptr inbounds nuw %"class.qe::mbproj::impl", ptr %18, i32 0, i32 0
  %20 = load ptr, ptr %19, align 8, !tbaa !276
  call void @_ZN3mbp20arith_project_pluginC1ER11ast_manager(ptr noundef nonnull align 8 dereferenceable(152) %15, ptr noundef nonnull align 8 dereferenceable(976) %20)
  %21 = load ptr, ptr %10, align 8, !tbaa !108
  %22 = load ptr, ptr %11, align 8, !tbaa !231
  %23 = load ptr, ptr %12, align 8, !tbaa !87
  %24 = load ptr, ptr %13, align 8, !tbaa !180
  %25 = load ptr, ptr %14, align 8, !tbaa !180
  invoke void @_ZN3mbp20arith_project_plugin8maximizeERK10ref_vectorI4expr11ast_managerER5modelP3appR7obj_refIS2_S3_ESD_(ptr dead_on_unwind writable sret(%class.inf_eps_rational) align 8 %0, ptr noundef nonnull align 8 dereferenceable(152) %15, ptr noundef nonnull align 8 dereferenceable(16) %21, ptr noundef nonnull align 8 dereferenceable(160) %22, ptr noundef %23, ptr noundef nonnull align 8 dereferenceable(16) %24, ptr noundef nonnull align 8 dereferenceable(16) %25)
          to label %26 unwind label %27

26:                                               ; preds = %7
  call void @_ZN3mbp20arith_project_pluginD1Ev(ptr noundef nonnull align 8 dereferenceable(152) %15) #3
  call void @llvm.lifetime.end.p0(i64 152, ptr %15) #3
  ret void

27:                                               ; preds = %7
  %28 = landingpad { ptr, i32 }
          cleanup
  %29 = extractvalue { ptr, i32 } %28, 0
  store ptr %29, ptr %16, align 8
  %30 = extractvalue { ptr, i32 } %28, 1
  store i32 %30, ptr %17, align 4
  call void @_ZN3mbp20arith_project_pluginD1Ev(ptr noundef nonnull align 8 dereferenceable(152) %15) #3
  call void @llvm.lifetime.end.p0(i64 152, ptr %15) #3
  br label %31

31:                                               ; preds = %27
  %32 = load ptr, ptr %16, align 8
  %33 = load i32, ptr %17, align 4
  %34 = insertvalue { ptr, i32 } poison, ptr %32, 0
  %35 = insertvalue { ptr, i32 } %34, i32 %33, 1
  resume { ptr, i32 } %35
}

; Function Attrs: mustprogress uwtable
define linkonce_odr hidden void @_ZN15scoped_no_proofC2ER11ast_manager(ptr noundef nonnull align 8 dereferenceable(12) %0, ptr noundef nonnull align 8 dereferenceable(976) %1) unnamed_addr #5 comdat align 2 {
  %3 = alloca ptr, align 8
  %4 = alloca ptr, align 8
  store ptr %0, ptr %3, align 8, !tbaa !251
  store ptr %1, ptr %4, align 8, !tbaa !107
  %5 = load ptr, ptr %3, align 8
  %6 = load ptr, ptr %4, align 8, !tbaa !107
  call void @_ZN17scoped_proof_modeC2ER11ast_manager14proof_gen_mode(ptr noundef nonnull align 8 dereferenceable(12) %5, ptr noundef nonnull align 8 dereferenceable(976) %6, i32 noundef 0)
  ret void
}

; Function Attrs: mustprogress nounwind uwtable
define linkonce_odr hidden noundef nonnull align 8 dereferenceable(976) ptr @_ZNK10ref_vectorI4expr11ast_managerE11get_managerEv(ptr noundef nonnull align 8 dereferenceable(16) %0) #4 comdat align 2 {
  %2 = alloca ptr, align 8
  store ptr %0, ptr %2, align 8, !tbaa !108
  %3 = load ptr, ptr %2, align 8
  %4 = getelementptr inbounds nuw %class.ref_manager_wrapper, ptr %3, i32 0, i32 0
  %5 = load ptr, ptr %4, align 8, !tbaa !110
  ret ptr %5
}

; Function Attrs: mustprogress uwtable
define hidden void @_ZN2qe6mbproj8maximizeERK10ref_vectorI4expr11ast_managerER5modelP3appR7obj_refIS2_S3_ESD_(ptr dead_on_unwind noalias writable sret(%class.inf_eps_rational) align 8 %0, ptr noundef nonnull align 8 dereferenceable(8) %1, ptr noundef nonnull align 8 dereferenceable(16) %2, ptr noundef nonnull align 8 dereferenceable(160) %3, ptr noundef %4, ptr noundef nonnull align 8 dereferenceable(16) %5, ptr noundef nonnull align 8 dereferenceable(16) %6) #5 align 2 personality ptr @__gxx_personality_v0 {
  %8 = alloca ptr, align 8
  %9 = alloca ptr, align 8
  %10 = alloca ptr, align 8
  %11 = alloca ptr, align 8
  %12 = alloca ptr, align 8
  %13 = alloca ptr, align 8
  %14 = alloca ptr, align 8
  %15 = alloca %class.scoped_no_proof, align 8
  %16 = alloca ptr, align 8
  %17 = alloca i32, align 4
  store ptr %0, ptr %8, align 8
  store ptr %1, ptr %9, align 8, !tbaa !244
  store ptr %2, ptr %10, align 8, !tbaa !108
  store ptr %3, ptr %11, align 8, !tbaa !231
  store ptr %4, ptr %12, align 8, !tbaa !87
  store ptr %5, ptr %13, align 8, !tbaa !180
  store ptr %6, ptr %14, align 8, !tbaa !180
  %18 = load ptr, ptr %9, align 8
  call void @llvm.lifetime.start.p0(i64 16, ptr %15) #3
  %19 = load ptr, ptr %10, align 8, !tbaa !108
  %20 = call noundef nonnull align 8 dereferenceable(976) ptr @_ZNK10ref_vectorI4expr11ast_managerE11get_managerEv(ptr noundef nonnull align 8 dereferenceable(16) %19)
  call void @_ZN15scoped_no_proofC2ER11ast_manager(ptr noundef nonnull align 8 dereferenceable(12) %15, ptr noundef nonnull align 8 dereferenceable(976) %20)
  %21 = getelementptr inbounds nuw %"class.qe::mbproj", ptr %18, i32 0, i32 0
  %22 = load ptr, ptr %21, align 8, !tbaa !248
  %23 = load ptr, ptr %10, align 8, !tbaa !108
  %24 = load ptr, ptr %11, align 8, !tbaa !231
  %25 = load ptr, ptr %12, align 8, !tbaa !87
  %26 = load ptr, ptr %13, align 8, !tbaa !180
  %27 = load ptr, ptr %14, align 8, !tbaa !180
  invoke void @_ZN2qe6mbproj4impl8maximizeERK10ref_vectorI4expr11ast_managerER5modelP3appR7obj_refIS3_S4_ESE_(ptr dead_on_unwind writable sret(%class.inf_eps_rational) align 8 %0, ptr noundef nonnull align 8 dereferenceable(43) %22, ptr noundef nonnull align 8 dereferenceable(16) %23, ptr noundef nonnull align 8 dereferenceable(160) %24, ptr noundef %25, ptr noundef nonnull align 8 dereferenceable(16) %26, ptr noundef nonnull align 8 dereferenceable(16) %27)
          to label %28 unwind label %29

28:                                               ; preds = %7
  call void @_ZN17scoped_proof_modeD2Ev(ptr noundef nonnull align 8 dereferenceable(12) %15) #3
  call void @llvm.lifetime.end.p0(i64 16, ptr %15) #3
  ret void

29:                                               ; preds = %7
  %30 = landingpad { ptr, i32 }
          cleanup
  %31 = extractvalue { ptr, i32 } %30, 0
  store ptr %31, ptr %16, align 8
  %32 = extractvalue { ptr, i32 } %30, 1
  store i32 %32, ptr %17, align 4
  call void @_ZN17scoped_proof_modeD2Ev(ptr noundef nonnull align 8 dereferenceable(12) %15) #3
  call void @llvm.lifetime.end.p0(i64 16, ptr %15) #3
  br label %33

33:                                               ; preds = %29
  %34 = load ptr, ptr %16, align 8
  %35 = load i32, ptr %17, align 4
  %36 = insertvalue { ptr, i32 } poison, ptr %34, 0
  %37 = insertvalue { ptr, i32 } %36, i32 %35, 1
  resume { ptr, i32 } %37
}