; Function Attrs: mustprogress uwtable
define hidden void @_ZN2qe6mbproj8maximizeERK10ref_vectorI4expr11ast_managerER5modelP3appR7obj_refIS2_S3_ESD_(ptr dead_on_unwind noalias writable sret(%class.inf_eps_rational) align 8 %0, ptr noundef nonnull readonly align 8 captures(none) dereferenceable(8) %1, ptr noundef nonnull align 8 dereferenceable(16) %2, ptr noundef nonnull align 8 dereferenceable(160) %3, ptr noundef %4, ptr noundef nonnull align 8 dereferenceable(16) %5, ptr noundef nonnull align 8 dereferenceable(16) %6) local_unnamed_addr #4 align 2 personality ptr @__gxx_personality_v0 {
  %8 = alloca %"class.mbp::arith_project_plugin", align 8
  %9 = load ptr, ptr %2, align 8, !tbaa !134
  %10 = getelementptr inbounds nuw i8, ptr %9, i64 712
  %11 = load i32, ptr %10, align 8, !tbaa !206
  store i32 0, ptr %10, align 8, !tbaa !206
  %12 = load ptr, ptr %1, align 8, !tbaa !207
  call void @llvm.lifetime.start.p0(i64 152, ptr nonnull %8) #19, !noalias !235
  %13 = load ptr, ptr %12, align 8, !tbaa !223, !noalias !235
  invoke void @_ZN3mbp20arith_project_pluginC1ER11ast_manager(ptr noundef nonnull align 8 dereferenceable(152) %8, ptr noundef nonnull align 8 dereferenceable(976) %13)
          to label %.noexc unwind label %17

.noexc:                                           ; preds = %7
  invoke void @_ZN3mbp20arith_project_plugin8maximizeERK10ref_vectorI4expr11ast_managerER5modelP3appR7obj_refIS2_S3_ESD_(ptr dead_on_unwind writable sret(%class.inf_eps_rational) align 8 %0, ptr noundef nonnull align 8 dereferenceable(152) %8, ptr noundef nonnull align 8 dereferenceable(16) %2, ptr noundef nonnull align 8 dereferenceable(160) %3, ptr noundef %4, ptr noundef nonnull align 8 dereferenceable(16) %5, ptr noundef nonnull align 8 dereferenceable(16) %6)
          to label %16 unwind label %14

14:                                               ; preds = %.noexc
  %15 = landingpad { ptr, i32 }
          cleanup
  call void @_ZN3mbp20arith_project_pluginD1Ev(ptr noundef nonnull align 8 dereferenceable(152) %8) #19
  call void @llvm.lifetime.end.p0(i64 152, ptr nonnull %8) #19, !noalias !235
  br label %.body

16:                                               ; preds = %.noexc
  call void @_ZN3mbp20arith_project_pluginD1Ev(ptr noundef nonnull align 8 dereferenceable(152) %8) #19
  call void @llvm.lifetime.end.p0(i64 152, ptr nonnull %8) #19, !noalias !235
  store i32 %11, ptr %10, align 8, !tbaa !206
  ret void

17:                                               ; preds = %7
  %18 = landingpad { ptr, i32 }
          cleanup
  br label %.body

.body:                                            ; preds = %14, %17
  %eh.lpad-body = phi { ptr, i32 } [ %18, %17 ], [ %15, %14 ]
  store i32 %11, ptr %10, align 8, !tbaa !206
  resume { ptr, i32 } %eh.lpad-body
}